target datalayout = "e-m:e-p270:32:32-p271:32:32-p272:64:64-i64:64-i128:128-f80:128-n8:16:32:64-S128"
target triple = "x86_64-pc-linux-gnu"

%struct.ssl_st = type { i32, i16, i16, ptr, ptr, ptr, ptr, ptr, i32, i32, ptr, ptr, i32, i32, ptr, ptr, ptr, ptr, ptr, ptr, ptr, ptr, i32, i32, [32 x i8], ptr, ptr, ptr, ptr, ptr, ptr, ptr, i64, %struct.crypto_ex_data_st, ptr, i32, i32, i32, i32, i16, ptr, i32, i64, ptr, ptr, ptr, ptr, ptr, ptr, i32, i32, ptr, ptr, i8, i8, i32 }
%struct.crypto_ex_data_st = type { ptr }

@.str = private unnamed_addr constant [117 x i8] c"generated/home/dtcxzyw/WorkSpace/Projects/compilers/llvm-opt-benchmark/bench/libquic/libquic/boringssl/ssl/s3_srvr.c\00", align 1
@.str.1 = private unnamed_addr constant [5 x i8] c"GET \00", align 1
@.str.2 = private unnamed_addr constant [6 x i8] c"POST \00", align 1
@.str.3 = private unnamed_addr constant [6 x i8] c"HEAD \00", align 1
@.str.4 = private unnamed_addr constant [5 x i8] c"PUT \00", align 1
@.str.5 = private unnamed_addr constant [6 x i8] c"CONNE\00", align 1

; Function Attrs: nounwind uwtable
define hidden i32 @ssl3_get_initial_bytes(ptr noundef %0) #0 {
  %2 = alloca i32, align 4
  %3 = alloca ptr, align 8
  %4 = alloca i32, align 4
  %5 = alloca i32, align 4
  %6 = alloca ptr, align 8
  store ptr %0, ptr %3, align 8, !tbaa !6
  call void @llvm.lifetime.start.p0(i64 4, ptr %4) #9
  %7 = load ptr, ptr %3, align 8, !tbaa !6
  %8 = call i32 @ssl_read_buffer_extend_to(ptr noundef %7, i64 noundef 5)
  store i32 %8, ptr %4, align 4, !tbaa !14
  %9 = load i32, ptr %4, align 4, !tbaa !14
  %10 = icmp sle i32 %9, 0
  br i1 %10, label %11, label %13

11:                                               ; preds = %1
  %12 = load i32, ptr %4, align 4, !tbaa !14
  store i32 %12, ptr %2, align 4
  store i32 1, ptr %5, align 4
  br label %63

13:                                               ; preds = %1
  call void @llvm.lifetime.start.p0(i64 8, ptr %6) #9
  %14 = load ptr, ptr %3, align 8, !tbaa !6
  %15 = call ptr @ssl_read_buffer(ptr noundef %14)
  store ptr %15, ptr %6, align 8, !tbaa !89
  %16 = load ptr, ptr %6, align 8, !tbaa !89
  %17 = call i32 @strncmp(ptr noundef @.str.1, ptr noundef %16, i64 noundef 4) #10
  %18 = icmp eq i32 %17, 0
  br i1 %18, label %31, label %19

19:                                               ; preds = %13
  %20 = load ptr, ptr %6, align 8, !tbaa !89
  %21 = call i32 @strncmp(ptr noundef @.str.2, ptr noundef %20, i64 noundef 5) #10
  %22 = icmp eq i32 %21, 0
  br i1 %22, label %31, label %23

23:                                               ; preds = %19
  %24 = load ptr, ptr %6, align 8, !tbaa !89
  %25 = call i32 @strncmp(ptr noundef @.str.3, ptr noundef %24, i64 noundef 5) #10
  %26 = icmp eq i32 %25, 0
  br i1 %26, label %31, label %27

27:                                               ; preds = %23
  %28 = load ptr, ptr %6, align 8, !tbaa !89
  %29 = call i32 @strncmp(ptr noundef @.str.4, ptr noundef %28, i64 noundef 4) #10
  %30 = icmp eq i32 %29, 0
  br i1 %30, label %31, label %32

31:                                               ; preds = %27, %23, %19, %13
  call void @ERR_put_error(i32 noundef 16, i32 noundef 0, i32 noundef 156, ptr noundef @.str, i32 noundef 604)
  store i32 -1, ptr %2, align 4
  store i32 1, ptr %5, align 4
  br label %62

32:                                               ; preds = %27
  %33 = load ptr, ptr %6, align 8, !tbaa !89
  %34 = call i32 @strncmp(ptr noundef @.str.5, ptr noundef %33, i64 noundef 5) #10
  %35 = icmp eq i32 %34, 0
  br i1 %35, label %36, label %37

36:                                               ; preds = %32
  call void @ERR_put_error(i32 noundef 16, i32 noundef 0, i32 noundef 155, ptr noundef @.str, i32 noundef 608)
  store i32 -1, ptr %2, align 4
  store i32 1, ptr %5, align 4
  br label %62

37:                                               ; preds = %32
  %38 = load ptr, ptr %6, align 8, !tbaa !89
  %39 = getelementptr inbounds i8, ptr %38, i64 0
  %40 = load i8, ptr %39, align 1, !tbaa !90
  %41 = zext i8 %40 to i32
  %42 = and i32 %41, 128
  %43 = icmp ne i32 %42, 0
  br i1 %43, label %44, label %59

44:                                               ; preds = %37
  %45 = load ptr, ptr %6, align 8, !tbaa !89
  %46 = getelementptr inbounds i8, ptr %45, i64 2
  %47 = load i8, ptr %46, align 1, !tbaa !90
  %48 = zext i8 %47 to i32
  %49 = icmp eq i32 %48, 1
  br i1 %49, label %50, label %59

50:                                               ; preds = %44
  %51 = load ptr, ptr %6, align 8, !tbaa !89
  %52 = getelementptr inbounds i8, ptr %51, i64 3
  %53 = load i8, ptr %52, align 1, !tbaa !90
  %54 = zext i8 %53 to i32
  %55 = icmp sge i32 %54, 3
  br i1 %55, label %56, label %59

56:                                               ; preds = %50
  %57 = load ptr, ptr %3, align 8, !tbaa !6
  %58 = getelementptr inbounds nuw %struct.ssl_st, ptr %57, i32 0, i32 9
  store i32 8769, ptr %58, align 4, !tbaa !48
  store i32 1, ptr %2, align 4
  store i32 1, ptr %5, align 4
  br label %62

59:                                               ; preds = %50, %44, %37
  %60 = load ptr, ptr %3, align 8, !tbaa !6
  %61 = getelementptr inbounds nuw %struct.ssl_st, ptr %60, i32 0, i32 9
  store i32 8464, ptr %61, align 4, !tbaa !48
  store i32 1, ptr %2, align 4
  store i32 1, ptr %5, align 4
  br label %62

62:                                               ; preds = %59, %56, %36, %31
  call void @llvm.lifetime.end.p0(i64 8, ptr %6) #9
  br label %63

63:                                               ; preds = %62, %11
  call void @llvm.lifetime.end.p0(i64 4, ptr %4) #9
  %64 = load i32, ptr %2, align 4
  ret i32 %64
}