; Function Attrs: nounwind uwtable
define hidden range(i32 -2147483648, 2) i32 @ssl3_get_initial_bytes(ptr noundef %0) local_unnamed_addr #0 {
  %2 = tail call i32 @ssl_read_buffer_extend_to(ptr noundef %0, i64 noundef 5) #10
  %3 = icmp slt i32 %2, 1
  br i1 %3, label %36, label %4

4:                                                ; preds = %1
  %5 = tail call ptr @ssl_read_buffer(ptr noundef %0) #10
  %6 = tail call i32 @strncmp(ptr noundef nonnull dereferenceable(5) @.str.1, ptr noundef nonnull dereferenceable(1) %5, i64 noundef 4) #11
  %7 = icmp eq i32 %6, 0
  br i1 %7, label %17, label %8

8:                                                ; preds = %4
  %9 = tail call i32 @strncmp(ptr noundef nonnull dereferenceable(6) @.str.2, ptr noundef nonnull dereferenceable(1) %5, i64 noundef 5) #11
  %10 = icmp eq i32 %9, 0
  br i1 %10, label %17, label %11

11:                                               ; preds = %8
  %12 = tail call i32 @strncmp(ptr noundef nonnull dereferenceable(6) @.str.3, ptr noundef nonnull dereferenceable(1) %5, i64 noundef 5) #11
  %13 = icmp eq i32 %12, 0
  br i1 %13, label %17, label %14

14:                                               ; preds = %11
  %15 = tail call i32 @strncmp(ptr noundef nonnull dereferenceable(5) @.str.4, ptr noundef nonnull dereferenceable(1) %5, i64 noundef 4) #11
  %16 = icmp eq i32 %15, 0
  br i1 %16, label %17, label %18

17:                                               ; preds = %14, %11, %8, %4
  tail call void @ERR_put_error(i32 noundef 16, i32 noundef 0, i32 noundef 156, ptr noundef nonnull @.str, i32 noundef 604) #10
  br label %36

18:                                               ; preds = %14
  %19 = tail call i32 @strncmp(ptr noundef nonnull dereferenceable(6) @.str.5, ptr noundef nonnull dereferenceable(1) %5, i64 noundef 5) #11
  %20 = icmp eq i32 %19, 0
  br i1 %20, label %21, label %22

21:                                               ; preds = %18
  tail call void @ERR_put_error(i32 noundef 16, i32 noundef 0, i32 noundef 155, ptr noundef nonnull @.str, i32 noundef 608) #10
  br label %36

22:                                               ; preds = %18
  %23 = load i8, ptr %5, align 1, !tbaa !86
  %.not = icmp sgt i8 %23, -1
  br i1 %.not, label %34, label %24

24:                                               ; preds = %22
  %25 = getelementptr inbounds nuw i8, ptr %5, i64 2
  %26 = load i8, ptr %25, align 1, !tbaa !86
  %27 = icmp eq i8 %26, 1
  br i1 %27, label %28, label %34

28:                                               ; preds = %24
  %29 = getelementptr inbounds nuw i8, ptr %5, i64 3
  %30 = load i8, ptr %29, align 1, !tbaa !86
  %31 = icmp ugt i8 %30, 2
  br i1 %31, label %32, label %34

32:                                               ; preds = %28
  %33 = getelementptr inbounds nuw i8, ptr %0, i64 52
  store i32 8769, ptr %33, align 4, !tbaa !43
  br label %36

34:                                               ; preds = %28, %24, %22
  %35 = getelementptr inbounds nuw i8, ptr %0, i64 52
  store i32 8464, ptr %35, align 4, !tbaa !43
  br label %36

36:                                               ; preds = %17, %21, %32, %34, %1
  %.0 = phi i32 [ %2, %1 ], [ -1, %17 ], [ -1, %21 ], [ 1, %32 ], [ 1, %34 ]
  ret i32 %.0
}